target datalayout = "e-m:e-p270:32:32-p271:32:32-p272:64:64-i64:64-i128:128-f80:128-n8:16:32:64-S128"
target triple = "x86_64-unknown-linux-gnu"

%class.doc_manager = type { %class.tbv_manager, ptr, %class.small_object_allocator }
%class.tbv_manager = type { %class.fixed_bit_vector_manager, %class.ptr_vector }
%class.fixed_bit_vector_manager = type <{ %class.small_object_allocator, i32, i32, i32, i32, %class.fixed_bit_vector, [4 x i8] }>
%class.fixed_bit_vector = type { [1 x i32] }
%class.ptr_vector = type { %class.vector }
%class.vector = type { ptr }
%class.small_object_allocator = type { [32 x ptr], [32 x ptr], i64 }
%class.doc = type { ptr, %class.union_bvec }
%class.union_bvec = type { %class.buffer }
%class.buffer = type { ptr, i32, i32, [8 x %"union.std::aligned_storage<8, 8>::type"] }
%"union.std::aligned_storage<8, 8>::type" = type { [8 x i8] }

@.str.4 = private unnamed_addr constant [4 x i8] c" \\ \00", align 1

; Function Attrs: mustprogress nounwind uwtable
define linkonce_odr hidden noundef zeroext i1 @_ZNK6bufferIP3tbvLb0ELj8EE5emptyEv(ptr noundef nonnull align 8 dereferenceable(80) %this) #5 comdat align 2 {
entry:
  %this.addr = alloca ptr, align 8
  store ptr %this, ptr %this.addr, align 8
  %this1 = load ptr, ptr %this.addr, align 8
  %m_pos = getelementptr inbounds %class.buffer, ptr %this1, i32 0, i32 1
  %0 = load i32, ptr %m_pos, align 8
  %cmp = icmp eq i32 %0, 0
  ret i1 %cmp
}

; Function Attrs: mustprogress uwtable
define linkonce_odr hidden noundef zeroext i1 @_ZNK10union_bvecI11tbv_manager3tbvE8is_emptyEv(ptr noundef nonnull align 8 dereferenceable(80) %this) #4 comdat align 2 {
entry:
  %this.addr = alloca ptr, align 8
  store ptr %this, ptr %this.addr, align 8
  %this1 = load ptr, ptr %this.addr, align 8
  %m_elems = getelementptr inbounds %class.union_bvec, ptr %this1, i32 0, i32 0
  %call = call noundef zeroext i1 @_ZNK6bufferIP3tbvLb0ELj8EE5emptyEv(ptr noundef nonnull align 8 dereferenceable(80) %m_elems)
  ret i1 %call
}

; Function Attrs: mustprogress nounwind uwtable
define linkonce_odr hidden noundef nonnull align 8 dereferenceable(80) ptr @_ZNK3doc3negEv(ptr noundef nonnull align 8 dereferenceable(88) %this) #5 comdat align 2 {
entry:
  %this.addr = alloca ptr, align 8
  store ptr %this, ptr %this.addr, align 8
  %this1 = load ptr, ptr %this.addr, align 8
  %m_neg = getelementptr inbounds %class.doc, ptr %this1, i32 0, i32 1
  ret ptr %m_neg
}

; Function Attrs: mustprogress nounwind uwtable
define linkonce_odr hidden noundef nonnull align 4 dereferenceable(4) ptr @_ZNK3doc3posEv(ptr noundef nonnull align 8 dereferenceable(88) %this) #5 comdat align 2 {
entry:
  %this.addr = alloca ptr, align 8
  store ptr %this, ptr %this.addr, align 8
  %this1 = load ptr, ptr %this.addr, align 8
  %m_pos = getelementptr inbounds %class.doc, ptr %this1, i32 0, i32 0
  %0 = load ptr, ptr %m_pos, align 8
  ret ptr %0
}

; Function Attrs: mustprogress uwtable
define hidden noundef nonnull align 8 dereferenceable(8) ptr @_ZNK11doc_manager7displayERSoRK3docjj(ptr noundef nonnull align 8 dereferenceable(1080) %this, ptr noundef nonnull align 8 dereferenceable(8) %out, ptr noundef nonnull align 8 dereferenceable(88) %b, i32 noundef %hi, i32 noundef %lo) #4 align 2 {
entry:
  %retval = alloca ptr, align 8
  %this.addr = alloca ptr, align 8
  %out.addr = alloca ptr, align 8
  %b.addr = alloca ptr, align 8
  %hi.addr = alloca i32, align 4
  %lo.addr = alloca i32, align 4
  store ptr %this, ptr %this.addr, align 8
  store ptr %out, ptr %out.addr, align 8
  store ptr %b, ptr %b.addr, align 8
  store i32 %hi, ptr %hi.addr, align 4
  store i32 %lo, ptr %lo.addr, align 4
  %this1 = load ptr, ptr %this.addr, align 8
  %m = getelementptr inbounds %class.doc_manager, ptr %this1, i32 0, i32 0
  %0 = load ptr, ptr %out.addr, align 8
  %1 = load ptr, ptr %b.addr, align 8
  %call = call noundef nonnull align 4 dereferenceable(4) ptr @_ZNK3doc3posEv(ptr noundef nonnull align 8 dereferenceable(88) %1)
  %2 = load i32, ptr %hi.addr, align 4
  %3 = load i32, ptr %lo.addr, align 4
  %call2 = call noundef nonnull align 8 dereferenceable(8) ptr @_ZNK11tbv_manager7displayERSoRK3tbvjj(ptr noundef nonnull align 8 dereferenceable(552) %m, ptr noundef nonnull align 8 dereferenceable(8) %0, ptr noundef nonnull align 4 dereferenceable(4) %call, i32 noundef %2, i32 noundef %3)
  %4 = load ptr, ptr %b.addr, align 8
  %call3 = call noundef nonnull align 8 dereferenceable(80) ptr @_ZNK3doc3negEv(ptr noundef nonnull align 8 dereferenceable(88) %4)
  %call4 = call noundef zeroext i1 @_ZNK10union_bvecI11tbv_manager3tbvE8is_emptyEv(ptr noundef nonnull align 8 dereferenceable(80) %call3)
  br i1 %call4, label %if.then, label %if.end

if.then:                                          ; preds = %entry
  %5 = load ptr, ptr %out.addr, align 8
  store ptr %5, ptr %retval, align 8
  br label %return

if.end:                                           ; preds = %entry
  %6 = load ptr, ptr %out.addr, align 8
  %call5 = call noundef nonnull align 8 dereferenceable(8) ptr @_ZStlsISt11char_traitsIcEERSt13basic_ostreamIcT_ES5_PKc(ptr noundef nonnull align 8 dereferenceable(8) %6, ptr noundef @.str.4)
  %7 = load ptr, ptr %b.addr, align 8
  %call6 = call noundef nonnull align 8 dereferenceable(80) ptr @_ZNK3doc3negEv(ptr noundef nonnull align 8 dereferenceable(88) %7)
  %m7 = getelementptr inbounds %class.doc_manager, ptr %this1, i32 0, i32 0
  %8 = load ptr, ptr %out.addr, align 8
  %9 = load i32, ptr %hi.addr, align 4
  %10 = load i32, ptr %lo.addr, align 4
  %call8 = call noundef nonnull align 8 dereferenceable(8) ptr @_ZNK10union_bvecI11tbv_manager3tbvE7displayERKS0_RSojj(ptr noundef nonnull align 8 dereferenceable(80) %call6, ptr noundef nonnull align 8 dereferenceable(552) %m7, ptr noundef nonnull align 8 dereferenceable(8) %8, i32 noundef %9, i32 noundef %10)
  %11 = load ptr, ptr %out.addr, align 8
  store ptr %11, ptr %retval, align 8
  br label %return

return:                                           ; preds = %if.end, %if.then
  %12 = load ptr, ptr %retval, align 8
  ret ptr %12
}