; Function Attrs: mustprogress uwtable
define hidden noundef nonnull align 8 dereferenceable(8) ptr @_ZNK11doc_manager7displayERSoRK3docjj(ptr noundef nonnull align 8 dereferenceable(1080) %this, ptr noundef nonnull returned align 8 dereferenceable(8) %out, ptr noundef nonnull align 8 dereferenceable(88) %b, i32 noundef %hi, i32 noundef %lo) local_unnamed_addr #3 align 2 {
entry:
  %0 = load ptr, ptr %b, align 8
  %call2 = tail call noundef nonnull align 8 dereferenceable(8) ptr @_ZNK11tbv_manager7displayERSoRK3tbvjj(ptr noundef nonnull align 8 dereferenceable(552) %this, ptr noundef nonnull align 8 dereferenceable(8) %out, ptr noundef nonnull align 4 dereferenceable(4) %0, i32 noundef %hi, i32 noundef %lo)
  %m_pos.i.i = getelementptr inbounds i8, ptr %b, i64 16
  %1 = load i32, ptr %m_pos.i.i, align 8
  %cmp.i.i = icmp eq i32 %1, 0
  br i1 %cmp.i.i, label %return, label %if.end

if.end:                                           ; preds = %entry
  %m_neg.i = getelementptr inbounds i8, ptr %b, i64 8
  %call5 = tail call noundef nonnull align 8 dereferenceable(8) ptr @_ZStlsISt11char_traitsIcEERSt13basic_ostreamIcT_ES5_PKc(ptr noundef nonnull align 8 dereferenceable(8) %out, ptr noundef nonnull @.str.4)
  %call8 = tail call noundef nonnull align 8 dereferenceable(8) ptr @_ZNK10union_bvecI11tbv_manager3tbvE7displayERKS0_RSojj(ptr noundef nonnull align 8 dereferenceable(80) %m_neg.i, ptr noundef nonnull align 8 dereferenceable(552) %this, ptr noundef nonnull align 8 dereferenceable(8) %out, i32 noundef %hi, i32 noundef %lo)
  br label %return

return:                                           ; preds = %entry, %if.end
  ret ptr %out
}